; Function Attrs: mustprogress nofree norecurse nosync nounwind willreturn memory(argmem: read) uwtable
define hidden noundef range(i32 4, 30) i32 @_ZNK2cv10ExrDecoder4typeEv(ptr nocapture noundef nonnull readonly align 8 dereferenceable(376) %0) unnamed_addr #7 align 2 {
.thread:
  %1 = getelementptr inbounds i8, ptr %0, i64 374
  %2 = load i8, ptr %1, align 2
  %3 = getelementptr inbounds i8, ptr %0, i64 373
  %4 = load i8, ptr %3, align 1
  %5 = trunc i8 %4 to i1
  %6 = getelementptr inbounds i8, ptr %0, i64 375
  %7 = load i8, ptr %6, align 1
  %8 = shl i8 %7, 3
  %9 = and i8 %8, 8
  %10 = zext nneg i8 %9 to i32
  %11 = trunc i8 %7 to i1
  %spec.select = select i1 %11, i32 24, i32 16
  %12 = select i1 %5, i32 %spec.select, i32 %10
  %13 = trunc i8 %2 to i1
  %14 = select i1 %13, i32 5, i32 4
  %15 = or disjoint i32 %12, %14
  ret i32 %15
}